; Function Attrs: mustprogress nounwind uwtable
define hidden void @_ZN9xmlStream5klassEP5Klass(ptr noundef nonnull align 8 dereferenceable(152) %0, ptr noundef readonly %1) local_unnamed_addr #0 align 2 {
  %3 = icmp eq ptr %1, null
  br i1 %3, label %8, label %_ZN9xmlStream10klass_textEP5Klass.exit

_ZN9xmlStream10klass_textEP5Klass.exit:           ; preds = %2
  tail call void @_ZN12outputStream9print_rawEPKcm(ptr noundef nonnull align 8 dereferenceable(56) %0, ptr noundef nonnull @.str.34, i64 noundef 8) #8
  %4 = getelementptr inbounds i8, ptr %1, i64 24
  %5 = load ptr, ptr %4, align 8
  %6 = getelementptr inbounds i8, ptr %0, i64 56
  %7 = load ptr, ptr %6, align 8
  tail call void @_ZNK6Symbol15print_symbol_onEP12outputStream(ptr noundef nonnull align 4 dereferenceable(8) %5, ptr noundef %7) #8
  tail call void @_ZN12outputStream9print_rawEPKcm(ptr noundef nonnull align 8 dereferenceable(56) %0, ptr noundef nonnull @.str.21, i64 noundef 1) #8
  br label %8

8:                                                ; preds = %2, %_ZN9xmlStream10klass_textEP5Klass.exit
  ret void
}